target datalayout = "e-m:e-p270:32:32-p271:32:32-p272:64:64-i64:64-i128:128-f80:128-n8:16:32:64-S128"
target triple = "x86_64-pc-linux-gnu"

%union.ma_device_id = type { %union.anon.17 }
%union.anon.17 = type { ptr, [248 x i8] }
%struct.ma_device_info = type { %union.ma_device_id, [256 x i8], i32, i32, [64 x %struct.anon.18] }
%struct.anon.18 = type { i32, i32, i32, i32 }

@.str.558 = private unnamed_addr constant [21 x i8] c"NULL Playback Device\00", align 1
@.str.559 = private unnamed_addr constant [20 x i8] c"NULL Capture Device\00", align 1

; Function Attrs: nounwind uwtable
define internal i32 @ma_context_get_device_info__null(ptr noundef %0, i32 noundef %1, ptr noundef %2, ptr noundef %3) #0 {
  %5 = alloca i32, align 4
  %6 = alloca ptr, align 8
  %7 = alloca i32, align 4
  %8 = alloca ptr, align 8
  %9 = alloca ptr, align 8
  store ptr %0, ptr %6, align 8
  store i32 %1, ptr %7, align 4
  store ptr %2, ptr %8, align 8
  store ptr %3, ptr %9, align 8
  %10 = load ptr, ptr %8, align 8
  %11 = icmp ne ptr %10, null
  br i1 %11, label %12, label %17

12:                                               ; preds = %4
  %13 = load ptr, ptr %8, align 8
  %14 = load i32, ptr %13, align 8
  %15 = icmp ne i32 %14, 0
  br i1 %15, label %16, label %17

16:                                               ; preds = %12
  store i32 -204, ptr %5, align 4
  br label %51

17:                                               ; preds = %12, %4
  %18 = load i32, ptr %7, align 4
  %19 = icmp eq i32 %18, 1
  br i1 %19, label %20, label %25

20:                                               ; preds = %17
  %21 = load ptr, ptr %9, align 8
  %22 = getelementptr inbounds nuw %struct.ma_device_info, ptr %21, i32 0, i32 1
  %23 = getelementptr inbounds [256 x i8], ptr %22, i64 0, i64 0
  %24 = call i32 @ma_strncpy_s(ptr noundef %23, i64 noundef 256, ptr noundef @.str.558, i64 noundef -1)
  br label %30

25:                                               ; preds = %17
  %26 = load ptr, ptr %9, align 8
  %27 = getelementptr inbounds nuw %struct.ma_device_info, ptr %26, i32 0, i32 1
  %28 = getelementptr inbounds [256 x i8], ptr %27, i64 0, i64 0
  %29 = call i32 @ma_strncpy_s(ptr noundef %28, i64 noundef 256, ptr noundef @.str.559, i64 noundef -1)
  br label %30

30:                                               ; preds = %25, %20
  %31 = load ptr, ptr %9, align 8
  %32 = getelementptr inbounds nuw %struct.ma_device_info, ptr %31, i32 0, i32 2
  store i32 1, ptr %32, align 8
  %33 = load ptr, ptr %9, align 8
  %34 = getelementptr inbounds nuw %struct.ma_device_info, ptr %33, i32 0, i32 4
  %35 = getelementptr inbounds [64 x %struct.anon.18], ptr %34, i64 0, i64 0
  %36 = getelementptr inbounds nuw %struct.anon.18, ptr %35, i32 0, i32 0
  store i32 0, ptr %36, align 8
  %37 = load ptr, ptr %9, align 8
  %38 = getelementptr inbounds nuw %struct.ma_device_info, ptr %37, i32 0, i32 4
  %39 = getelementptr inbounds [64 x %struct.anon.18], ptr %38, i64 0, i64 0
  %40 = getelementptr inbounds nuw %struct.anon.18, ptr %39, i32 0, i32 1
  store i32 0, ptr %40, align 4
  %41 = load ptr, ptr %9, align 8
  %42 = getelementptr inbounds nuw %struct.ma_device_info, ptr %41, i32 0, i32 4
  %43 = getelementptr inbounds [64 x %struct.anon.18], ptr %42, i64 0, i64 0
  %44 = getelementptr inbounds nuw %struct.anon.18, ptr %43, i32 0, i32 2
  store i32 0, ptr %44, align 8
  %45 = load ptr, ptr %9, align 8
  %46 = getelementptr inbounds nuw %struct.ma_device_info, ptr %45, i32 0, i32 4
  %47 = getelementptr inbounds [64 x %struct.anon.18], ptr %46, i64 0, i64 0
  %48 = getelementptr inbounds nuw %struct.anon.18, ptr %47, i32 0, i32 3
  store i32 0, ptr %48, align 4
  %49 = load ptr, ptr %9, align 8
  %50 = getelementptr inbounds nuw %struct.ma_device_info, ptr %49, i32 0, i32 3
  store i32 1, ptr %50, align 4
  store i32 0, ptr %5, align 4
  br label %51

51:                                               ; preds = %30, %16
  %52 = load i32, ptr %5, align 4
  ret i32 %52
}