; Function Attrs: nofree norecurse nosync nounwind memory(argmem: readwrite) uwtable
define internal range(i32 -204, 1) i32 @ma_context_get_device_info__null(ptr readnone captures(none) %0, i32 noundef %1, ptr noundef readonly captures(address_is_null) %2, ptr noundef captures(address_is_null) %3) #23 {
  %.not = icmp eq ptr %2, null
  br i1 %.not, label %7, label %5

5:                                                ; preds = %4
  %6 = load i32, ptr %2, align 8
  %.not12 = icmp eq i32 %6, 0
  br i1 %.not12, label %7, label %14

7:                                                ; preds = %5, %4
  %8 = icmp eq i32 %1, 1
  %9 = getelementptr inbounds nuw i8, ptr %3, i64 256
  %.str.558..str.559 = select i1 %8, ptr @.str.558, ptr @.str.559
  %10 = tail call i32 @ma_strncpy_s(ptr noundef nonnull %9, i64 noundef 256, ptr noundef nonnull %.str.558..str.559, i64 noundef -1)
  %11 = getelementptr inbounds nuw i8, ptr %3, i64 512
  store i32 1, ptr %11, align 8
  %12 = getelementptr inbounds nuw i8, ptr %3, i64 520
  %13 = getelementptr inbounds nuw i8, ptr %3, i64 516
  tail call void @llvm.memset.p0.i64(ptr noundef nonnull align 8 dereferenceable(16) %12, i8 0, i64 16, i1 false)
  store i32 1, ptr %13, align 4
  br label %14

14:                                               ; preds = %5, %7
  %.0 = phi i32 [ 0, %7 ], [ -204, %5 ]
  ret i32 %.0
}